target datalayout = "e-m:e-p270:32:32-p271:32:32-p272:64:64-i64:64-i128:128-f80:128-n8:16:32:64-S128"
target triple = "x86_64-pc-linux-gnu"

%"struct.Imf_3_4::PreviewRgba" = type { i8, i8, i8, i8 }
%"class.Imf_3_4::PreviewImage" = type { i32, i32, ptr }

; Function Attrs: mustprogress nounwind uwtable
define linkonce_odr hidden void @_ZN7Imf_3_411PreviewRgbaC2Ehhhh(ptr noundef nonnull align 1 dereferenceable(4) %0, i8 noundef zeroext %1, i8 noundef zeroext %2, i8 noundef zeroext %3, i8 noundef zeroext %4) unnamed_addr #4 comdat align 2 {
  %6 = alloca ptr, align 8
  %7 = alloca i8, align 1
  %8 = alloca i8, align 1
  %9 = alloca i8, align 1
  %10 = alloca i8, align 1
  store ptr %0, ptr %6, align 8, !tbaa !10
  store i8 %1, ptr %7, align 1, !tbaa !17
  store i8 %2, ptr %8, align 1, !tbaa !17
  store i8 %3, ptr %9, align 1, !tbaa !17
  store i8 %4, ptr %10, align 1, !tbaa !17
  %11 = load ptr, ptr %6, align 8
  %12 = getelementptr inbounds nuw %"struct.Imf_3_4::PreviewRgba", ptr %11, i32 0, i32 0
  %13 = load i8, ptr %7, align 1, !tbaa !17
  store i8 %13, ptr %12, align 1, !tbaa !23
  %14 = getelementptr inbounds nuw %"struct.Imf_3_4::PreviewRgba", ptr %11, i32 0, i32 1
  %15 = load i8, ptr %8, align 1, !tbaa !17
  store i8 %15, ptr %14, align 1, !tbaa !25
  %16 = getelementptr inbounds nuw %"struct.Imf_3_4::PreviewRgba", ptr %11, i32 0, i32 2
  %17 = load i8, ptr %9, align 1, !tbaa !17
  store i8 %17, ptr %16, align 1, !tbaa !26
  %18 = getelementptr inbounds nuw %"struct.Imf_3_4::PreviewRgba", ptr %11, i32 0, i32 3
  %19 = load i8, ptr %10, align 1, !tbaa !17
  store i8 %19, ptr %18, align 1, !tbaa !27
  ret void
}

; Function Attrs: mustprogress uwtable
define void @_ZN7Imf_3_412PreviewImageC2ERKS0_(ptr noundef nonnull align 8 dereferenceable(16) %0, ptr noundef nonnull align 8 dereferenceable(16) %1) unnamed_addr #0 align 2 personality ptr @__gxx_personality_v0 {
  %3 = alloca ptr, align 8
  %4 = alloca ptr, align 8
  %5 = alloca ptr, align 8
  %6 = alloca i32, align 4
  %7 = alloca i32, align 4
  store ptr %0, ptr %3, align 8, !tbaa !3
  store ptr %1, ptr %4, align 8, !tbaa !3
  %8 = load ptr, ptr %3, align 8
  %9 = getelementptr inbounds nuw %"class.Imf_3_4::PreviewImage", ptr %8, i32 0, i32 0
  %10 = load ptr, ptr %4, align 8, !tbaa !3
  %11 = getelementptr inbounds nuw %"class.Imf_3_4::PreviewImage", ptr %10, i32 0, i32 0
  %12 = load i32, ptr %11, align 8, !tbaa !12
  store i32 %12, ptr %9, align 8, !tbaa !12
  %13 = getelementptr inbounds nuw %"class.Imf_3_4::PreviewImage", ptr %8, i32 0, i32 1
  %14 = load ptr, ptr %4, align 8, !tbaa !3
  %15 = getelementptr inbounds nuw %"class.Imf_3_4::PreviewImage", ptr %14, i32 0, i32 1
  %16 = load i32, ptr %15, align 4, !tbaa !14
  store i32 %16, ptr %13, align 4, !tbaa !14
  %17 = getelementptr inbounds nuw %"class.Imf_3_4::PreviewImage", ptr %8, i32 0, i32 2
  %18 = load ptr, ptr %4, align 8, !tbaa !3
  %19 = getelementptr inbounds nuw %"class.Imf_3_4::PreviewImage", ptr %18, i32 0, i32 0
  %20 = load i32, ptr %19, align 8, !tbaa !12
  %21 = load ptr, ptr %4, align 8, !tbaa !3
  %22 = getelementptr inbounds nuw %"class.Imf_3_4::PreviewImage", ptr %21, i32 0, i32 1
  %23 = load i32, ptr %22, align 4, !tbaa !14
  %24 = mul i32 %20, %23
  %25 = zext i32 %24 to i64
  %26 = call { i64, i1 } @llvm.umul.with.overflow.i64(i64 %25, i64 4)
  %27 = extractvalue { i64, i1 } %26, 1
  %28 = extractvalue { i64, i1 } %26, 0
  %29 = select i1 %27, i64 -1, i64 %28
  %30 = call noalias noundef nonnull ptr @_Znam(i64 noundef %29) #10
  %31 = icmp eq i64 %25, 0
  br i1 %31, label %39, label %32

32:                                               ; preds = %2
  %33 = getelementptr inbounds %"struct.Imf_3_4::PreviewRgba", ptr %30, i64 %25
  br label %34

34:                                               ; preds = %36, %32
  %35 = phi ptr [ %30, %32 ], [ %37, %36 ]
  invoke void @_ZN7Imf_3_411PreviewRgbaC2Ehhhh(ptr noundef nonnull align 1 dereferenceable(4) %35, i8 noundef zeroext 0, i8 noundef zeroext 0, i8 noundef zeroext 0, i8 noundef zeroext -1)
          to label %36 unwind label %49

36:                                               ; preds = %34
  %37 = getelementptr inbounds %"struct.Imf_3_4::PreviewRgba", ptr %35, i64 1
  %38 = icmp eq ptr %37, %33
  br i1 %38, label %39, label %34

39:                                               ; preds = %2, %36
  store ptr %30, ptr %17, align 8, !tbaa !15
  call void @llvm.lifetime.start.p0(i64 4, ptr %7) #11
  store i32 0, ptr %7, align 4, !tbaa !8
  br label %40

40:                                               ; preds = %65, %39
  %41 = load i32, ptr %7, align 4, !tbaa !8
  %42 = getelementptr inbounds nuw %"class.Imf_3_4::PreviewImage", ptr %8, i32 0, i32 0
  %43 = load i32, ptr %42, align 8, !tbaa !12
  %44 = getelementptr inbounds nuw %"class.Imf_3_4::PreviewImage", ptr %8, i32 0, i32 1
  %45 = load i32, ptr %44, align 4, !tbaa !14
  %46 = mul i32 %43, %45
  %47 = icmp ult i32 %41, %46
  br i1 %47, label %53, label %48

48:                                               ; preds = %40
  call void @llvm.lifetime.end.p0(i64 4, ptr %7) #11
  br label %68

49:                                               ; preds = %34
  %50 = landingpad { ptr, i32 }
          cleanup
  %51 = extractvalue { ptr, i32 } %50, 0
  store ptr %51, ptr %5, align 8
  %52 = extractvalue { ptr, i32 } %50, 1
  store i32 %52, ptr %6, align 4
  call void @_ZdaPvm(ptr noundef %30, i64 noundef %29) #12
  br label %69

53:                                               ; preds = %40
  %54 = load ptr, ptr %4, align 8, !tbaa !3
  %55 = getelementptr inbounds nuw %"class.Imf_3_4::PreviewImage", ptr %54, i32 0, i32 2
  %56 = load ptr, ptr %55, align 8, !tbaa !15
  %57 = load i32, ptr %7, align 4, !tbaa !8
  %58 = zext i32 %57 to i64
  %59 = getelementptr inbounds nuw %"struct.Imf_3_4::PreviewRgba", ptr %56, i64 %58
  %60 = getelementptr inbounds nuw %"class.Imf_3_4::PreviewImage", ptr %8, i32 0, i32 2
  %61 = load ptr, ptr %60, align 8, !tbaa !15
  %62 = load i32, ptr %7, align 4, !tbaa !8
  %63 = zext i32 %62 to i64
  %64 = getelementptr inbounds nuw %"struct.Imf_3_4::PreviewRgba", ptr %61, i64 %63
  call void @llvm.memcpy.p0.p0.i64(ptr align 1 %64, ptr align 1 %59, i64 4, i1 false), !tbaa.struct !16
  br label %65

65:                                               ; preds = %53
  %66 = load i32, ptr %7, align 4, !tbaa !8
  %67 = add i32 %66, 1
  store i32 %67, ptr %7, align 4, !tbaa !8
  br label %40, !llvm.loop !28

68:                                               ; preds = %48
  ret void

69:                                               ; preds = %49
  %70 = load ptr, ptr %5, align 8
  %71 = load i32, ptr %6, align 4
  %72 = insertvalue { ptr, i32 } poison, ptr %70, 0
  %73 = insertvalue { ptr, i32 } %72, i32 %71, 1
  resume { ptr, i32 } %73
}