; Function Attrs: mustprogress uwtable
define void @_ZN7Imf_3_412PreviewImageC2ERKS0_(ptr noundef nonnull align 8 captures(none) dereferenceable(16) initializes((0, 8)) %0, ptr noundef nonnull readonly align 8 captures(none) dereferenceable(16) %1) unnamed_addr #0 align 2 personality ptr @__gxx_personality_v0 {
  %3 = load i32, ptr %1, align 8, !tbaa !3
  store i32 %3, ptr %0, align 8, !tbaa !3
  %4 = getelementptr inbounds nuw i8, ptr %0, i64 4
  %5 = getelementptr inbounds nuw i8, ptr %1, i64 4
  %6 = load i32, ptr %5, align 4, !tbaa !10
  store i32 %6, ptr %4, align 4, !tbaa !10
  %7 = getelementptr inbounds nuw i8, ptr %0, i64 8
  %8 = mul i32 %6, %3
  %9 = zext i32 %8 to i64
  %10 = shl nuw nsw i64 %9, 2
  %11 = tail call noalias noundef nonnull ptr @_Znam(i64 noundef %10) #10
  %12 = icmp eq i32 %8, 0
  br i1 %12, label %.loopexit.thread, label %13

.loopexit.thread:                                 ; preds = %2
  store ptr %11, ptr %7, align 8, !tbaa !16
  br label %._crit_edge

13:                                               ; preds = %2
  %14 = getelementptr inbounds nuw %"struct.Imf_3_4::PreviewRgba", ptr %11, i64 %9
  br label %15

15:                                               ; preds = %15, %13
  %16 = phi ptr [ %11, %13 ], [ %20, %15 ]
  store i8 0, ptr %16, align 1, !tbaa !11
  %17 = getelementptr inbounds nuw i8, ptr %16, i64 1
  store i8 0, ptr %17, align 1, !tbaa !13
  %18 = getelementptr inbounds nuw i8, ptr %16, i64 2
  store i8 0, ptr %18, align 1, !tbaa !14
  %19 = getelementptr inbounds nuw i8, ptr %16, i64 3
  store i8 -1, ptr %19, align 1, !tbaa !15
  %20 = getelementptr inbounds nuw i8, ptr %16, i64 4
  %21 = icmp eq ptr %20, %14
  br i1 %21, label %.lr.ph, label %15

.lr.ph:                                           ; preds = %15
  store ptr %11, ptr %7, align 8, !tbaa !16
  %22 = getelementptr inbounds nuw i8, ptr %1, i64 8
  br label %23

._crit_edge:                                      ; preds = %23, %.loopexit.thread
  ret void

23:                                               ; preds = %.lr.ph, %23
  %indvars.iv = phi i64 [ 0, %.lr.ph ], [ %indvars.iv.next, %23 ]
  %24 = load ptr, ptr %22, align 8, !tbaa !16
  %25 = getelementptr inbounds nuw %"struct.Imf_3_4::PreviewRgba", ptr %24, i64 %indvars.iv
  %26 = load ptr, ptr %7, align 8, !tbaa !16
  %27 = getelementptr inbounds nuw %"struct.Imf_3_4::PreviewRgba", ptr %26, i64 %indvars.iv
  %28 = load i32, ptr %25, align 1
  store i32 %28, ptr %27, align 1
  %indvars.iv.next = add nuw nsw i64 %indvars.iv, 1
  %29 = load i32, ptr %0, align 8, !tbaa !3
  %30 = load i32, ptr %4, align 4, !tbaa !10
  %31 = mul i32 %30, %29
  %32 = zext i32 %31 to i64
  %33 = icmp samesign ult i64 %indvars.iv.next, %32
  br i1 %33, label %23, label %._crit_edge, !llvm.loop !20
}